; Function Attrs: nounwind uwtable
define dso_local void @ExecHashJoinReInitializeDSM(ptr noundef readonly captures(none) %0, ptr noundef readonly captures(none) %1) local_unnamed_addr #0 {
  %3 = getelementptr inbounds nuw i8, ptr %1, i64 72
  %4 = load ptr, ptr %3, align 8
  %5 = icmp eq ptr %4, null
  br i1 %5, label %22, label %6

6:                                                ; preds = %2
  %7 = getelementptr inbounds nuw i8, ptr %0, i64 8
  %8 = load ptr, ptr %7, align 8
  %9 = getelementptr inbounds nuw i8, ptr %8, i64 40
  %10 = load i32, ptr %9, align 8
  %11 = getelementptr inbounds nuw i8, ptr %1, i64 88
  %12 = load ptr, ptr %11, align 8
  %13 = sext i32 %10 to i64
  %14 = tail call ptr @shm_toc_lookup(ptr noundef %12, i64 noundef %13, i1 noundef zeroext false) #6
  %15 = getelementptr inbounds nuw i8, ptr %0, i64 232
  %16 = load ptr, ptr %15, align 8
  %.not = icmp eq ptr %16, null
  br i1 %.not, label %19, label %17

17:                                               ; preds = %6
  tail call void @ExecHashTableDetachBatch(ptr noundef nonnull %16) #6
  %18 = load ptr, ptr %15, align 8
  tail call void @ExecHashTableDetach(ptr noundef %18) #6
  br label %19

19:                                               ; preds = %17, %6
  %20 = getelementptr inbounds nuw i8, ptr %14, i64 192
  tail call void @SharedFileSetDeleteAll(ptr noundef nonnull %20) #6
  %21 = getelementptr inbounds nuw i8, ptr %14, i64 80
  tail call void @BarrierInit(ptr noundef nonnull %21, i32 noundef 0) #6
  br label %22

22:                                               ; preds = %2, %19
  ret void
}